target datalayout = "e-m:e-p270:32:32-p271:32:32-p272:64:64-i64:64-i128:128-f80:128-n8:16:32:64-S128"
target triple = "x86_64-pc-linux-gnu"

%struct.repository_format = type { i32, i32, ptr, i32, i32, i32, i32, i32, i32, i32, ptr, %struct.string_list, %struct.string_list }
%struct.string_list = type { ptr, i64, i64, i8, ptr }

@.str.112 = private unnamed_addr constant [10 x i8] c"core.bare\00", align 1
@.str.113 = private unnamed_addr constant [14 x i8] c"core.worktree\00", align 1

; Function Attrs: inlinehint nounwind uwtable
define internal i32 @const_error() #2 {
  ret i32 -1
}

; Function Attrs: nounwind uwtable
define internal i32 @read_worktree_config(ptr noundef %0, ptr noundef %1, ptr noundef %2, ptr noundef %3) #0 {
  %5 = alloca i32, align 4
  %6 = alloca ptr, align 8
  %7 = alloca ptr, align 8
  %8 = alloca ptr, align 8
  %9 = alloca ptr, align 8
  %10 = alloca ptr, align 8
  %11 = alloca i32, align 4
  store ptr %0, ptr %6, align 8, !tbaa !4
  store ptr %1, ptr %7, align 8, !tbaa !4
  store ptr %2, ptr %8, align 8, !tbaa !53
  store ptr %3, ptr %9, align 8, !tbaa !55
  call void @llvm.lifetime.start.p0(i64 8, ptr %10) #13
  %12 = load ptr, ptr %9, align 8, !tbaa !55
  store ptr %12, ptr %10, align 8, !tbaa !45
  %13 = load ptr, ptr %6, align 8, !tbaa !4
  %14 = call i32 @strcmp(ptr noundef %13, ptr noundef @.str.112) #14
  %15 = icmp eq i32 %14, 0
  br i1 %15, label %16, label %22

16:                                               ; preds = %4
  %17 = load ptr, ptr %6, align 8, !tbaa !4
  %18 = load ptr, ptr %7, align 8, !tbaa !4
  %19 = call i32 @git_config_bool(ptr noundef %17, ptr noundef %18)
  %20 = load ptr, ptr %10, align 8, !tbaa !45
  %21 = getelementptr inbounds nuw %struct.repository_format, ptr %20, i32 0, i32 5
  store i32 %19, ptr %21, align 8, !tbaa !106
  br label %42

22:                                               ; preds = %4
  %23 = load ptr, ptr %6, align 8, !tbaa !4
  %24 = call i32 @strcmp(ptr noundef %23, ptr noundef @.str.113) #14
  %25 = icmp eq i32 %24, 0
  br i1 %25, label %26, label %41

26:                                               ; preds = %22
  %27 = load ptr, ptr %7, align 8, !tbaa !4
  %28 = icmp ne ptr %27, null
  br i1 %28, label %33, label %29

29:                                               ; preds = %26
  %30 = load ptr, ptr %6, align 8, !tbaa !4
  %31 = call i32 @config_error_nonbool(ptr noundef %30)
  %32 = call i32 @const_error()
  store i32 %32, ptr %5, align 4
  store i32 1, ptr %11, align 4
  br label %43

33:                                               ; preds = %26
  %34 = load ptr, ptr %10, align 8, !tbaa !45
  %35 = getelementptr inbounds nuw %struct.repository_format, ptr %34, i32 0, i32 10
  %36 = load ptr, ptr %35, align 8, !tbaa !51
  call void @free(ptr noundef %36) #13
  %37 = load ptr, ptr %7, align 8, !tbaa !4
  %38 = call ptr @xstrdup(ptr noundef %37)
  %39 = load ptr, ptr %10, align 8, !tbaa !45
  %40 = getelementptr inbounds nuw %struct.repository_format, ptr %39, i32 0, i32 10
  store ptr %38, ptr %40, align 8, !tbaa !51
  br label %41

41:                                               ; preds = %33, %22
  br label %42

42:                                               ; preds = %41, %16
  store i32 0, ptr %5, align 4
  store i32 1, ptr %11, align 4
  br label %43

43:                                               ; preds = %42, %29
  call void @llvm.lifetime.end.p0(i64 8, ptr %10) #13
  %44 = load i32, ptr %5, align 4
  ret i32 %44
}