; Function Attrs: nounwind uwtable
define internal range(i32 -1, 1) i32 @read_worktree_config(ptr noundef %0, ptr noundef %1, ptr readnone captures(none) %2, ptr noundef captures(none) %3) #0 {
  %5 = tail call i32 @strcmp(ptr noundef nonnull dereferenceable(1) %0, ptr noundef nonnull dereferenceable(10) @.str.112) #24
  %6 = icmp eq i32 %5, 0
  br i1 %6, label %7, label %10

7:                                                ; preds = %4
  %8 = tail call i32 @git_config_bool(ptr noundef nonnull %0, ptr noundef %1) #25
  %9 = getelementptr inbounds nuw i8, ptr %3, i64 24
  store i32 %8, ptr %9, align 8, !tbaa !56
  br label %20

10:                                               ; preds = %4
  %11 = tail call i32 @strcmp(ptr noundef nonnull dereferenceable(1) %0, ptr noundef nonnull dereferenceable(14) @.str.113) #24
  %12 = icmp eq i32 %11, 0
  br i1 %12, label %13, label %20

13:                                               ; preds = %10
  %.not = icmp eq ptr %1, null
  br i1 %.not, label %14, label %16

14:                                               ; preds = %13
  %15 = tail call i32 @config_error_nonbool(ptr noundef nonnull %0) #25
  br label %20

16:                                               ; preds = %13
  %17 = getelementptr inbounds nuw i8, ptr %3, i64 48
  %18 = load ptr, ptr %17, align 8, !tbaa !36
  tail call void @free(ptr noundef %18) #25
  %19 = tail call ptr @xstrdup(ptr noundef nonnull %1) #25
  store ptr %19, ptr %17, align 8, !tbaa !36
  br label %20

20:                                               ; preds = %7, %16, %10, %14
  %.0 = phi i32 [ -1, %14 ], [ 0, %10 ], [ 0, %16 ], [ 0, %7 ]
  ret i32 %.0
}